; Function Attrs: mustprogress nofree norecurse nosync nounwind willreturn memory(read, inaccessiblemem: none) uwtable
define hidden noundef zeroext i1 @_ZNK4goal10is_decidedEv(ptr noundef nonnull readonly align 8 captures(none) dereferenceable(124) %0) local_unnamed_addr #15 align 2 {
  %2 = getelementptr inbounds nuw i8, ptr %0, i64 72
  %3 = load ptr, ptr %2, align 8, !tbaa !15
  %4 = icmp eq ptr %3, null
  br i1 %4, label %_ZNK4goal14is_decided_satEv.exit, label %.preheader.i.i.i.i

.preheader.i.i.i.i:                               ; preds = %1, %7
  %.0.i.i.i.i = phi ptr [ %9, %7 ], [ %3, %1 ]
  %5 = load i32, ptr %.0.i.i.i.i, align 8
  %6 = lshr i32 %5, 30
  switch i32 %6, label %default.unreachable [
    i32 0, label %7
    i32 1, label %10
    i32 2, label %14
    i32 3, label %18
  ]

7:                                                ; preds = %.preheader.i.i.i.i
  %8 = getelementptr inbounds nuw i8, ptr %.0.i.i.i.i, i64 16
  %9 = load ptr, ptr %8, align 8, !tbaa !14
  br label %.preheader.i.i.i.i, !llvm.loop !154

10:                                               ; preds = %.preheader.i.i.i.i
  %11 = getelementptr inbounds nuw i8, ptr %.0.i.i.i.i, i64 4
  %12 = load i32, ptr %11, align 4, !tbaa !14
  %13 = add i32 %12, 1
  br label %_ZNK4goal4sizeEv.exit.i

14:                                               ; preds = %.preheader.i.i.i.i
  %15 = getelementptr inbounds nuw i8, ptr %.0.i.i.i.i, i64 4
  %16 = load i32, ptr %15, align 4, !tbaa !14
  %17 = add i32 %16, -1
  br label %_ZNK4goal4sizeEv.exit.i

18:                                               ; preds = %.preheader.i.i.i.i
  %19 = getelementptr inbounds nuw i8, ptr %.0.i.i.i.i, i64 4
  %20 = load i32, ptr %19, align 4, !tbaa !14
  br label %_ZNK4goal4sizeEv.exit.i

default.unreachable:                              ; preds = %.preheader.i.i.i.i
  unreachable

_ZNK4goal4sizeEv.exit.i:                          ; preds = %18, %14, %10
  %.07.i.i.i.i = phi i32 [ %20, %18 ], [ %17, %14 ], [ %13, %10 ]
  %21 = icmp eq i32 %.07.i.i.i.i, 0
  br i1 %21, label %_ZNK4goal14is_decided_satEv.exit, label %_ZNK4goal4sizeEv.exit.i._ZNK4goal14is_decided_satEv.exit.thread_crit_edge

_ZNK4goal4sizeEv.exit.i._ZNK4goal14is_decided_satEv.exit.thread_crit_edge: ; preds = %_ZNK4goal4sizeEv.exit.i
  %.phi.trans.insert = getelementptr inbounds nuw i8, ptr %0, i64 120
  %.pre = load i32, ptr %.phi.trans.insert, align 8
  br label %_ZNK4goal14is_decided_satEv.exit.thread

_ZNK4goal14is_decided_satEv.exit:                 ; preds = %1, %_ZNK4goal4sizeEv.exit.i
  %22 = getelementptr inbounds nuw i8, ptr %0, i64 120
  %23 = load i32, ptr %22, align 8
  %24 = icmp ult i32 %23, 1073741824
  %.mask.i.i = and i32 %23, -1073741824
  %25 = icmp eq i32 %.mask.i.i, 1073741824
  %spec.select.i.i = or i1 %24, %25
  br i1 %spec.select.i.i, label %29, label %_ZNK4goal14is_decided_satEv.exit.thread

_ZNK4goal14is_decided_satEv.exit.thread:          ; preds = %_ZNK4goal4sizeEv.exit.i._ZNK4goal14is_decided_satEv.exit.thread_crit_edge, %_ZNK4goal14is_decided_satEv.exit
  %26 = phi i32 [ %.pre, %_ZNK4goal4sizeEv.exit.i._ZNK4goal14is_decided_satEv.exit.thread_crit_edge ], [ %23, %_ZNK4goal14is_decided_satEv.exit ]
  %27 = and i32 %26, 1610612736
  %28 = icmp eq i32 %27, 536870912
  br label %29

29:                                               ; preds = %_ZNK4goal14is_decided_satEv.exit.thread, %_ZNK4goal14is_decided_satEv.exit
  %30 = phi i1 [ true, %_ZNK4goal14is_decided_satEv.exit ], [ %28, %_ZNK4goal14is_decided_satEv.exit.thread ]
  ret i1 %30
}